target datalayout = "e-m:e-p270:32:32-p271:32:32-p272:64:64-i64:64-i128:128-f80:128-n8:16:32:64-S128"
target triple = "x86_64-pc-linux-gnu"

%"class.std::vector.67" = type { %"struct.std::_Vector_base.68" }
%"struct.std::_Vector_base.68" = type { %"struct.std::_Vector_base<int, std::allocator<int>>::_Vector_impl" }
%"struct.std::_Vector_base<int, std::allocator<int>>::_Vector_impl" = type { %"struct.std::_Vector_base<int, std::allocator<int>>::_Vector_impl_data" }
%"struct.std::_Vector_base<int, std::allocator<int>>::_Vector_impl_data" = type { ptr, ptr, ptr }
%"class.arrow::FieldPath" = type { %"class.std::vector.67" }

@_ZZN5arrow8internal12ScalarHelperIjLm0EvE11ComputeHashERKjE11multipliers = linkonce_odr constant [2 x i64] [i64 -7046029288634856825, i64 -4417276706812531889], comdat, align 16
@_ZZN5arrow8internal12ScalarHelperIjLm1EvE11ComputeHashERKjE11multipliers = linkonce_odr constant [2 x i64] [i64 -7046029288634856825, i64 -4417276706812531889], comdat, align 16
@_ZZN5arrow8internal12ScalarHelperImLm0EvE11ComputeHashERKmE11multipliers = linkonce_odr constant [2 x i64] [i64 -7046029288634856825, i64 -4417276706812531889], comdat, align 16
@_ZZN5arrow8internal12ScalarHelperImLm1EvE11ComputeHashERKmE11multipliers = linkonce_odr constant [2 x i64] [i64 -7046029288634856825, i64 -4417276706812531889], comdat, align 16

; Function Attrs: inlinehint mustprogress nounwind uwtable
define internal noundef i64 @_ZN5arrow8bit_utilL8ByteSwapEm(i64 noundef %0) #4 {
  %2 = alloca i64, align 8
  store i64 %0, ptr %2, align 8, !tbaa !43
  %3 = load i64, ptr %2, align 8, !tbaa !43
  %4 = call i64 @llvm.bswap.i64(i64 %3)
  ret i64 %4
}

; Function Attrs: mustprogress nounwind uwtable
define linkonce_odr noundef i64 @_ZN5arrow8internal12ScalarHelperImLm1EvE11ComputeHashERKm(ptr noundef nonnull align 8 dereferenceable(8) %0) #0 comdat align 2 {
  %2 = alloca ptr, align 8
  %3 = alloca i64, align 8
  store ptr %0, ptr %2, align 8, !tbaa !300
  call void @llvm.lifetime.start.p0(i64 8, ptr %3) #15
  %4 = load ptr, ptr %2, align 8, !tbaa !300
  %5 = load i64, ptr %4, align 8, !tbaa !43
  store i64 %5, ptr %3, align 8, !tbaa !43
  %6 = load i64, ptr getelementptr inbounds nuw ([2 x i64], ptr @_ZZN5arrow8internal12ScalarHelperImLm1EvE11ComputeHashERKmE11multipliers, i64 0, i64 1), align 8, !tbaa !43
  %7 = load i64, ptr %3, align 8, !tbaa !43
  %8 = mul i64 %6, %7
  %9 = call noundef i64 @_ZN5arrow8bit_utilL8ByteSwapEm(i64 noundef %8)
  call void @llvm.lifetime.end.p0(i64 8, ptr %3) #15
  ret i64 %9
}

; Function Attrs: mustprogress nounwind uwtable
define linkonce_odr noundef i64 @_ZN5arrow8internal12ScalarHelperImLm0EvE11ComputeHashERKm(ptr noundef nonnull align 8 dereferenceable(8) %0) #0 comdat align 2 {
  %2 = alloca ptr, align 8
  %3 = alloca i64, align 8
  store ptr %0, ptr %2, align 8, !tbaa !300
  call void @llvm.lifetime.start.p0(i64 8, ptr %3) #15
  %4 = load ptr, ptr %2, align 8, !tbaa !300
  %5 = load i64, ptr %4, align 8, !tbaa !43
  store i64 %5, ptr %3, align 8, !tbaa !43
  %6 = load i64, ptr @_ZZN5arrow8internal12ScalarHelperImLm0EvE11ComputeHashERKmE11multipliers, align 16, !tbaa !43
  %7 = load i64, ptr %3, align 8, !tbaa !43
  %8 = mul i64 %6, %7
  %9 = call noundef i64 @_ZN5arrow8bit_utilL8ByteSwapEm(i64 noundef %8)
  call void @llvm.lifetime.end.p0(i64 8, ptr %3) #15
  ret i64 %9
}

; Function Attrs: inlinehint mustprogress nounwind uwtable
define linkonce_odr noundef i64 @_ZN5arrow4util10SafeLoadAsImEENSt9enable_ifIXsr3stdE23is_trivially_copyable_vIT_EES3_E4typeEPKh(ptr noundef %0) #4 comdat {
  %2 = alloca ptr, align 8
  %3 = alloca i64, align 8
  store ptr %0, ptr %2, align 8, !tbaa !164
  call void @llvm.lifetime.start.p0(i64 8, ptr %3) #15
  %4 = load ptr, ptr %2, align 8, !tbaa !164
  call void @llvm.memcpy.p0.p0.i64(ptr align 8 %3, ptr align 1 %4, i64 8, i1 false)
  %5 = load i64, ptr %3, align 8, !tbaa !43
  call void @llvm.lifetime.end.p0(i64 8, ptr %3) #15
  ret i64 %5
}

; Function Attrs: mustprogress nounwind uwtable
define linkonce_odr noundef i64 @_ZN5arrow8internal12ScalarHelperIjLm1EvE11ComputeHashERKj(ptr noundef nonnull align 4 dereferenceable(4) %0) #0 comdat align 2 {
  %2 = alloca ptr, align 8
  %3 = alloca i64, align 8
  store ptr %0, ptr %2, align 8, !tbaa !355
  call void @llvm.lifetime.start.p0(i64 8, ptr %3) #15
  %4 = load ptr, ptr %2, align 8, !tbaa !355
  %5 = load i32, ptr %4, align 4, !tbaa !8
  %6 = zext i32 %5 to i64
  store i64 %6, ptr %3, align 8, !tbaa !43
  %7 = load i64, ptr getelementptr inbounds nuw ([2 x i64], ptr @_ZZN5arrow8internal12ScalarHelperIjLm1EvE11ComputeHashERKjE11multipliers, i64 0, i64 1), align 8, !tbaa !43
  %8 = load i64, ptr %3, align 8, !tbaa !43
  %9 = mul i64 %7, %8
  %10 = call noundef i64 @_ZN5arrow8bit_utilL8ByteSwapEm(i64 noundef %9)
  call void @llvm.lifetime.end.p0(i64 8, ptr %3) #15
  ret i64 %10
}

; Function Attrs: inlinehint mustprogress nounwind uwtable
define linkonce_odr noundef i32 @_ZN5arrow4util10SafeLoadAsIjEENSt9enable_ifIXsr3stdE23is_trivially_copyable_vIT_EES3_E4typeEPKh(ptr noundef %0) #4 comdat {
  %2 = alloca ptr, align 8
  %3 = alloca i32, align 4
  store ptr %0, ptr %2, align 8, !tbaa !164
  call void @llvm.lifetime.start.p0(i64 4, ptr %3) #15
  %4 = load ptr, ptr %2, align 8, !tbaa !164
  call void @llvm.memcpy.p0.p0.i64(ptr align 4 %3, ptr align 1 %4, i64 4, i1 false)
  %5 = load i32, ptr %3, align 4, !tbaa !8
  call void @llvm.lifetime.end.p0(i64 4, ptr %3) #15
  ret i32 %5
}

; Function Attrs: mustprogress uwtable
define linkonce_odr noundef i64 @_ZN5arrow8internal12ScalarHelperIjLm0EvE11ComputeHashERKj(ptr noundef nonnull align 4 dereferenceable(4) %0) #1 comdat align 2 {
  %2 = alloca ptr, align 8
  %3 = alloca i64, align 8
  store ptr %0, ptr %2, align 8, !tbaa !355
  call void @llvm.lifetime.start.p0(i64 8, ptr %3) #15
  %4 = load ptr, ptr %2, align 8, !tbaa !355
  %5 = load i32, ptr %4, align 4, !tbaa !8
  %6 = zext i32 %5 to i64
  store i64 %6, ptr %3, align 8, !tbaa !43
  %7 = load i64, ptr @_ZZN5arrow8internal12ScalarHelperIjLm0EvE11ComputeHashERKjE11multipliers, align 16, !tbaa !43
  %8 = load i64, ptr %3, align 8, !tbaa !43
  %9 = mul i64 %7, %8
  %10 = call noundef i64 @_ZN5arrow8bit_utilL8ByteSwapEm(i64 noundef %9)
  call void @llvm.lifetime.end.p0(i64 8, ptr %3) #15
  ret i64 %10
}

; Function Attrs: mustprogress nounwind uwtable
define linkonce_odr noundef ptr @_ZNKSt6vectorIiSaIiEE11_M_data_ptrIiEEPT_S4_(ptr noundef nonnull align 8 dereferenceable(24) %0, ptr noundef %1) #0 comdat align 2 {
  %3 = alloca ptr, align 8
  %4 = alloca ptr, align 8
  store ptr %0, ptr %3, align 8, !tbaa !395
  store ptr %1, ptr %4, align 8, !tbaa !355
  %5 = load ptr, ptr %4, align 8, !tbaa !355
  ret ptr %5
}

; Function Attrs: inlinehint mustprogress uwtable
define linkonce_odr noundef i64 @_ZN5arrow8internal17ComputeStringHashILm0EEEmPKvl(ptr noundef %0, i64 noundef %1) #5 comdat {
  %3 = alloca i64, align 8
  %4 = alloca ptr, align 8
  %5 = alloca i64, align 8
  %6 = alloca ptr, align 8
  %7 = alloca i32, align 4
  %8 = alloca i32, align 4
  %9 = alloca i32, align 4
  %10 = alloca i32, align 4
  %11 = alloca i32, align 4
  %12 = alloca i64, align 8
  %13 = alloca i64, align 8
  %14 = alloca i64, align 8
  %15 = alloca i64, align 8
  %16 = alloca i64, align 8
  %17 = alloca i64, align 8
  store ptr %0, ptr %4, align 8, !tbaa !187
  store i64 %1, ptr %5, align 8, !tbaa !43
  %18 = load i64, ptr %5, align 8, !tbaa !43
  %19 = icmp sle i64 %18, 16
  %20 = xor i1 %19, true
  %21 = xor i1 %20, true
  %22 = zext i1 %21 to i64
  %23 = call i64 @llvm.expect.i64(i64 %22, i64 1)
  %24 = icmp ne i64 %23, 0
  br i1 %24, label %25, label %100

25:                                               ; preds = %2
  call void @llvm.lifetime.start.p0(i64 8, ptr %6) #15
  %26 = load ptr, ptr %4, align 8, !tbaa !187
  store ptr %26, ptr %6, align 8, !tbaa !164
  call void @llvm.lifetime.start.p0(i64 4, ptr %7) #15
  %27 = load i64, ptr %5, align 8, !tbaa !43
  %28 = trunc i64 %27 to i32
  store i32 %28, ptr %7, align 4, !tbaa !8
  %29 = load i32, ptr %7, align 4, !tbaa !8
  %30 = icmp ule i32 %29, 8
  br i1 %30, label %31, label %82

31:                                               ; preds = %25
  %32 = load i32, ptr %7, align 4, !tbaa !8
  %33 = icmp ule i32 %32, 3
  br i1 %33, label %34, label %65

34:                                               ; preds = %31
  %35 = load i32, ptr %7, align 4, !tbaa !8
  %36 = icmp eq i32 %35, 0
  br i1 %36, label %37, label %38

37:                                               ; preds = %34
  store i64 1, ptr %3, align 8
  store i32 1, ptr %8, align 4
  br label %99

38:                                               ; preds = %34
  call void @llvm.lifetime.start.p0(i64 4, ptr %9) #15
  %39 = load i32, ptr %7, align 4, !tbaa !8
  %40 = shl i32 %39, 24
  %41 = load ptr, ptr %6, align 8, !tbaa !164
  %42 = getelementptr inbounds i8, ptr %41, i64 0
  %43 = load i8, ptr %42, align 1, !tbaa !22
  %44 = zext i8 %43 to i32
  %45 = shl i32 %44, 16
  %46 = xor i32 %40, %45
  %47 = load ptr, ptr %6, align 8, !tbaa !164
  %48 = load i32, ptr %7, align 4, !tbaa !8
  %49 = udiv i32 %48, 2
  %50 = zext i32 %49 to i64
  %51 = getelementptr inbounds nuw i8, ptr %47, i64 %50
  %52 = load i8, ptr %51, align 1, !tbaa !22
  %53 = zext i8 %52 to i32
  %54 = shl i32 %53, 8
  %55 = xor i32 %46, %54
  %56 = load ptr, ptr %6, align 8, !tbaa !164
  %57 = load i32, ptr %7, align 4, !tbaa !8
  %58 = sub i32 %57, 1
  %59 = zext i32 %58 to i64
  %60 = getelementptr inbounds nuw i8, ptr %56, i64 %59
  %61 = load i8, ptr %60, align 1, !tbaa !22
  %62 = zext i8 %61 to i32
  %63 = xor i32 %55, %62
  store i32 %63, ptr %9, align 4, !tbaa !8
  %64 = call noundef i64 @_ZN5arrow8internal12ScalarHelperIjLm0EvE11ComputeHashERKj(ptr noundef nonnull align 4 dereferenceable(4) %9)
  store i64 %64, ptr %3, align 8
  store i32 1, ptr %8, align 4
  call void @llvm.lifetime.end.p0(i64 4, ptr %9) #15
  br label %99

65:                                               ; preds = %31
  call void @llvm.lifetime.start.p0(i64 4, ptr %10) #15
  call void @llvm.lifetime.start.p0(i64 4, ptr %11) #15
  call void @llvm.lifetime.start.p0(i64 8, ptr %12) #15
  call void @llvm.lifetime.start.p0(i64 8, ptr %13) #15
  %66 = load ptr, ptr %6, align 8, !tbaa !164
  %67 = load i32, ptr %7, align 4, !tbaa !8
  %68 = zext i32 %67 to i64
  %69 = getelementptr inbounds nuw i8, ptr %66, i64 %68
  %70 = getelementptr inbounds i8, ptr %69, i64 -4
  %71 = call noundef i32 @_ZN5arrow4util10SafeLoadAsIjEENSt9enable_ifIXsr3stdE23is_trivially_copyable_vIT_EES3_E4typeEPKh(ptr noundef %70)
  store i32 %71, ptr %10, align 4, !tbaa !8
  %72 = load ptr, ptr %6, align 8, !tbaa !164
  %73 = call noundef i32 @_ZN5arrow4util10SafeLoadAsIjEENSt9enable_ifIXsr3stdE23is_trivially_copyable_vIT_EES3_E4typeEPKh(ptr noundef %72)
  store i32 %73, ptr %11, align 4, !tbaa !8
  %74 = call noundef i64 @_ZN5arrow8internal12ScalarHelperIjLm0EvE11ComputeHashERKj(ptr noundef nonnull align 4 dereferenceable(4) %10)
  store i64 %74, ptr %12, align 8, !tbaa !43
  %75 = call noundef i64 @_ZN5arrow8internal12ScalarHelperIjLm1EvE11ComputeHashERKj(ptr noundef nonnull align 4 dereferenceable(4) %11)
  store i64 %75, ptr %13, align 8, !tbaa !43
  %76 = load i32, ptr %7, align 4, !tbaa !8
  %77 = zext i32 %76 to i64
  %78 = load i64, ptr %12, align 8, !tbaa !43
  %79 = xor i64 %77, %78
  %80 = load i64, ptr %13, align 8, !tbaa !43
  %81 = xor i64 %79, %80
  store i64 %81, ptr %3, align 8
  store i32 1, ptr %8, align 4
  call void @llvm.lifetime.end.p0(i64 8, ptr %13) #15
  call void @llvm.lifetime.end.p0(i64 8, ptr %12) #15
  call void @llvm.lifetime.end.p0(i64 4, ptr %11) #15
  call void @llvm.lifetime.end.p0(i64 4, ptr %10) #15
  br label %99

82:                                               ; preds = %25
  call void @llvm.lifetime.start.p0(i64 8, ptr %14) #15
  call void @llvm.lifetime.start.p0(i64 8, ptr %15) #15
  call void @llvm.lifetime.start.p0(i64 8, ptr %16) #15
  call void @llvm.lifetime.start.p0(i64 8, ptr %17) #15
  %83 = load ptr, ptr %6, align 8, !tbaa !164
  %84 = load i32, ptr %7, align 4, !tbaa !8
  %85 = zext i32 %84 to i64
  %86 = getelementptr inbounds nuw i8, ptr %83, i64 %85
  %87 = getelementptr inbounds i8, ptr %86, i64 -8
  %88 = call noundef i64 @_ZN5arrow4util10SafeLoadAsImEENSt9enable_ifIXsr3stdE23is_trivially_copyable_vIT_EES3_E4typeEPKh(ptr noundef %87)
  store i64 %88, ptr %14, align 8, !tbaa !43
  %89 = load ptr, ptr %6, align 8, !tbaa !164
  %90 = call noundef i64 @_ZN5arrow4util10SafeLoadAsImEENSt9enable_ifIXsr3stdE23is_trivially_copyable_vIT_EES3_E4typeEPKh(ptr noundef %89)
  store i64 %90, ptr %15, align 8, !tbaa !43
  %91 = call noundef i64 @_ZN5arrow8internal12ScalarHelperImLm0EvE11ComputeHashERKm(ptr noundef nonnull align 8 dereferenceable(8) %14)
  store i64 %91, ptr %16, align 8, !tbaa !43
  %92 = call noundef i64 @_ZN5arrow8internal12ScalarHelperImLm1EvE11ComputeHashERKm(ptr noundef nonnull align 8 dereferenceable(8) %15)
  store i64 %92, ptr %17, align 8, !tbaa !43
  %93 = load i32, ptr %7, align 4, !tbaa !8
  %94 = zext i32 %93 to i64
  %95 = load i64, ptr %16, align 8, !tbaa !43
  %96 = xor i64 %94, %95
  %97 = load i64, ptr %17, align 8, !tbaa !43
  %98 = xor i64 %96, %97
  store i64 %98, ptr %3, align 8
  store i32 1, ptr %8, align 4
  call void @llvm.lifetime.end.p0(i64 8, ptr %17) #15
  call void @llvm.lifetime.end.p0(i64 8, ptr %16) #15
  call void @llvm.lifetime.end.p0(i64 8, ptr %15) #15
  call void @llvm.lifetime.end.p0(i64 8, ptr %14) #15
  br label %99

99:                                               ; preds = %82, %65, %38, %37
  call void @llvm.lifetime.end.p0(i64 4, ptr %7) #15
  call void @llvm.lifetime.end.p0(i64 8, ptr %6) #15
  br label %104

100:                                              ; preds = %2
  %101 = load ptr, ptr %4, align 8, !tbaa !187
  %102 = load i64, ptr %5, align 8, !tbaa !43
  %103 = call noundef i64 @_ZL33XXH_INLINE_XXH3_64bits_withSecretPKvmS0_m(ptr noundef captures(none) %101, i64 noundef %102, ptr noundef captures(none) @_ZZN5arrow8internal17ComputeStringHashILm0EEEmPKvlE12kXxh3Secrets, i64 noundef 136) #34
  store i64 %103, ptr %3, align 8
  br label %104

104:                                              ; preds = %100, %99
  %105 = load i64, ptr %3, align 8
  ret i64 %105
}

; Function Attrs: mustprogress nounwind uwtable
define linkonce_odr noundef i64 @_ZNKSt6vectorIiSaIiEE4sizeEv(ptr noundef nonnull align 8 dereferenceable(24) %0) #0 comdat align 2 {
  %2 = alloca ptr, align 8
  store ptr %0, ptr %2, align 8, !tbaa !395
  %3 = load ptr, ptr %2, align 8
  %4 = getelementptr inbounds nuw %"struct.std::_Vector_base.68", ptr %3, i32 0, i32 0
  %5 = getelementptr inbounds nuw %"struct.std::_Vector_base<int, std::allocator<int>>::_Vector_impl_data", ptr %4, i32 0, i32 1
  %6 = load ptr, ptr %5, align 8, !tbaa !406
  %7 = getelementptr inbounds nuw %"struct.std::_Vector_base.68", ptr %3, i32 0, i32 0
  %8 = getelementptr inbounds nuw %"struct.std::_Vector_base<int, std::allocator<int>>::_Vector_impl_data", ptr %7, i32 0, i32 0
  %9 = load ptr, ptr %8, align 8, !tbaa !404
  %10 = ptrtoint ptr %6 to i64
  %11 = ptrtoint ptr %9 to i64
  %12 = sub i64 %10, %11
  %13 = sdiv exact i64 %12, 4
  ret i64 %13
}

; Function Attrs: mustprogress nounwind uwtable
define linkonce_odr noundef ptr @_ZNKSt6vectorIiSaIiEE4dataEv(ptr noundef nonnull align 8 dereferenceable(24) %0) #0 comdat align 2 {
  %2 = alloca ptr, align 8
  store ptr %0, ptr %2, align 8, !tbaa !395
  %3 = load ptr, ptr %2, align 8
  %4 = getelementptr inbounds nuw %"struct.std::_Vector_base.68", ptr %3, i32 0, i32 0
  %5 = getelementptr inbounds nuw %"struct.std::_Vector_base<int, std::allocator<int>>::_Vector_impl_data", ptr %4, i32 0, i32 0
  %6 = load ptr, ptr %5, align 8, !tbaa !404
  %7 = call noundef ptr @_ZNKSt6vectorIiSaIiEE11_M_data_ptrIiEEPT_S4_(ptr noundef nonnull align 8 dereferenceable(24) %3, ptr noundef %6) #15
  ret ptr %7
}

; Function Attrs: mustprogress nounwind uwtable
define linkonce_odr noundef nonnull align 8 dereferenceable(24) ptr @_ZNK5arrow9FieldPath7indicesEv(ptr noundef nonnull align 8 dereferenceable(24) %0) #0 comdat align 2 {
  %2 = alloca ptr, align 8
  store ptr %0, ptr %2, align 8, !tbaa !528
  %3 = load ptr, ptr %2, align 8
  %4 = getelementptr inbounds nuw %"class.arrow::FieldPath", ptr %3, i32 0, i32 0
  ret ptr %4
}

; Function Attrs: mustprogress uwtable
define noundef i64 @_ZNK5arrow9FieldPath4hashEv(ptr noundef nonnull align 8 dereferenceable(24) %0) #1 align 2 {
  %2 = alloca ptr, align 8
  store ptr %0, ptr %2, align 8, !tbaa !528
  %3 = load ptr, ptr %2, align 8
  %4 = call noundef nonnull align 8 dereferenceable(24) ptr @_ZNK5arrow9FieldPath7indicesEv(ptr noundef nonnull align 8 dereferenceable(24) %3)
  %5 = call noundef ptr @_ZNKSt6vectorIiSaIiEE4dataEv(ptr noundef nonnull align 8 dereferenceable(24) %4) #15
  %6 = call noundef nonnull align 8 dereferenceable(24) ptr @_ZNK5arrow9FieldPath7indicesEv(ptr noundef nonnull align 8 dereferenceable(24) %3)
  %7 = call noundef i64 @_ZNKSt6vectorIiSaIiEE4sizeEv(ptr noundef nonnull align 8 dereferenceable(24) %6) #15
  %8 = mul i64 %7, 4
  %9 = call noundef i64 @_ZN5arrow8internal17ComputeStringHashILm0EEEmPKvl(ptr noundef %5, i64 noundef %8)
  ret i64 %9
}