; Function Attrs: mustprogress nofree nounwind willreturn memory(read) uwtable
define noundef i64 @_ZNK5arrow9FieldPath4hashEv(ptr noundef nonnull readonly align 8 captures(none) dereferenceable(24) %0) local_unnamed_addr #18 align 2 {
  %2 = load ptr, ptr %0, align 8, !tbaa !1007
  %3 = getelementptr inbounds nuw i8, ptr %0, i64 8
  %4 = load ptr, ptr %3, align 8, !tbaa !1011
  %5 = ptrtoint ptr %4 to i64
  %6 = ptrtoint ptr %2 to i64
  %7 = sub i64 %5, %6
  %8 = icmp slt i64 %7, 17
  br i1 %8, label %9, label %55, !prof !46

9:                                                ; preds = %1
  %10 = trunc i64 %7 to i32
  %11 = icmp ult i32 %10, 9
  br i1 %11, label %12, label %46

12:                                               ; preds = %9
  %13 = icmp samesign ult i32 %10, 4
  br i1 %13, label %14, label %35

14:                                               ; preds = %12
  %15 = icmp eq i32 %10, 0
  br i1 %15, label %_ZN5arrow8internal17ComputeStringHashILm0EEEmPKvl.exit, label %16

16:                                               ; preds = %14
  %17 = shl i64 %7, 24
  %18 = load i8, ptr %2, align 1, !tbaa !42
  %19 = zext i8 %18 to i64
  %20 = shl nuw nsw i64 %19, 16
  %21 = lshr i64 %7, 1
  %22 = and i64 %21, 1
  %23 = getelementptr inbounds nuw i8, ptr %2, i64 %22
  %24 = load i8, ptr %23, align 1, !tbaa !42
  %25 = zext i8 %24 to i64
  %26 = shl nuw nsw i64 %25, 8
  %27 = add nsw i64 %7, 4294967295
  %28 = and i64 %27, 4294967295
  %29 = getelementptr inbounds nuw i8, ptr %2, i64 %28
  %30 = load i8, ptr %29, align 1, !tbaa !42
  %31 = zext i8 %30 to i64
  %.masked37.i = and i64 %17, 50331648
  %.masked36.i = or disjoint i64 %20, %.masked37.i
  %.masked.i = or disjoint i64 %.masked36.i, %26
  %32 = or disjoint i64 %.masked.i, %31
  %33 = mul i64 %32, -7046029288634856825
  %34 = tail call noundef i64 @llvm.bswap.i64(i64 %33)
  br label %_ZN5arrow8internal17ComputeStringHashILm0EEEmPKvl.exit

35:                                               ; preds = %12
  %36 = and i64 %7, 15
  %37 = getelementptr inbounds nuw i8, ptr %2, i64 %36
  %38 = getelementptr inbounds i8, ptr %37, i64 -4
  %.0.copyload.i.i = load i32, ptr %38, align 1
  %.0.copyload.i29.i = load i32, ptr %2, align 1
  %39 = zext i32 %.0.copyload.i.i to i64
  %40 = mul i64 %39, -7046029288634856825
  %41 = zext i32 %.0.copyload.i29.i to i64
  %42 = mul i64 %41, -4417276706812531889
  %43 = xor i64 %42, %40
  %44 = tail call i64 @llvm.bswap.i64(i64 %43)
  %45 = xor i64 %44, %36
  br label %_ZN5arrow8internal17ComputeStringHashILm0EEEmPKvl.exit

46:                                               ; preds = %9
  %47 = and i64 %7, 4294967295
  %48 = getelementptr inbounds nuw i8, ptr %2, i64 %47
  %49 = getelementptr inbounds i8, ptr %48, i64 -8
  %.0.copyload.i30.i = load i64, ptr %49, align 1
  %.0.copyload.i31.i = load i64, ptr %2, align 1
  %50 = mul i64 %.0.copyload.i30.i, -7046029288634856825
  %51 = mul i64 %.0.copyload.i31.i, -4417276706812531889
  %52 = xor i64 %51, %50
  %53 = tail call i64 @llvm.bswap.i64(i64 %52)
  %54 = xor i64 %53, %47
  br label %_ZN5arrow8internal17ComputeStringHashILm0EEEmPKvl.exit

55:                                               ; preds = %1
  %56 = tail call fastcc noundef i64 @_ZL33XXH_INLINE_XXH3_64bits_withSecretPKvmS0_m(ptr noundef captures(none) %2, i64 noundef %7) #42
  br label %_ZN5arrow8internal17ComputeStringHashILm0EEEmPKvl.exit

_ZN5arrow8internal17ComputeStringHashILm0EEEmPKvl.exit: ; preds = %14, %16, %35, %46, %55
  %.1.i = phi i64 [ %56, %55 ], [ %34, %16 ], [ %45, %35 ], [ %54, %46 ], [ 1, %14 ]
  ret i64 %.1.i
}